target datalayout = "e-m:e-p270:32:32-p271:32:32-p272:64:64-i64:64-i128:128-f80:128-n8:16:32:64-S128"
target triple = "x86_64-pc-linux-gnu"

%struct.ma_linear_resampler = type { %struct.ma_linear_resampler_config, i32, i32, i32, i32, %union.anon.24, %union.anon.25, %struct.ma_lpf, ptr, i32 }
%struct.ma_linear_resampler_config = type { i32, i32, i32, i32, i32, double }
%union.anon.24 = type { ptr }
%union.anon.25 = type { ptr }
%struct.ma_lpf = type { i32, i32, i32, i32, i32, ptr, ptr, ptr, i32 }

; Function Attrs: nounwind uwtable
define hidden i32 @ma_linear_resampler_get_expected_output_frame_count(ptr noundef %0, i64 noundef %1, ptr noundef %2) #0 {
  %4 = alloca i32, align 4
  %5 = alloca ptr, align 8
  %6 = alloca i64, align 8
  %7 = alloca ptr, align 8
  %8 = alloca i64, align 8
  %9 = alloca i64, align 8
  %10 = alloca i64, align 8
  %11 = alloca i32, align 4
  store ptr %0, ptr %5, align 8
  store i64 %1, ptr %6, align 8
  store ptr %2, ptr %7, align 8
  call void @llvm.lifetime.start.p0(i64 8, ptr %8) #21
  call void @llvm.lifetime.start.p0(i64 8, ptr %9) #21
  call void @llvm.lifetime.start.p0(i64 8, ptr %10) #21
  %12 = load ptr, ptr %7, align 8
  %13 = icmp eq ptr %12, null
  br i1 %13, label %14, label %15

14:                                               ; preds = %3
  store i32 -2, ptr %4, align 4
  store i32 1, ptr %11, align 4
  br label %73

15:                                               ; preds = %3
  %16 = load ptr, ptr %7, align 8
  store i64 0, ptr %16, align 8
  %17 = load ptr, ptr %5, align 8
  %18 = icmp eq ptr %17, null
  br i1 %18, label %19, label %20

19:                                               ; preds = %15
  store i32 -2, ptr %4, align 4
  store i32 1, ptr %11, align 4
  br label %73

20:                                               ; preds = %15
  %21 = load i64, ptr %6, align 8
  %22 = load ptr, ptr %5, align 8
  %23 = getelementptr inbounds nuw %struct.ma_linear_resampler, ptr %22, i32 0, i32 0
  %24 = getelementptr inbounds nuw %struct.ma_linear_resampler_config, ptr %23, i32 0, i32 3
  %25 = load i32, ptr %24, align 4
  %26 = zext i32 %25 to i64
  %27 = mul i64 %21, %26
  %28 = load ptr, ptr %5, align 8
  %29 = getelementptr inbounds nuw %struct.ma_linear_resampler, ptr %28, i32 0, i32 0
  %30 = getelementptr inbounds nuw %struct.ma_linear_resampler_config, ptr %29, i32 0, i32 2
  %31 = load i32, ptr %30, align 8
  %32 = zext i32 %31 to i64
  %33 = udiv i64 %27, %32
  store i64 %33, ptr %8, align 8
  %34 = load ptr, ptr %5, align 8
  %35 = getelementptr inbounds nuw %struct.ma_linear_resampler, ptr %34, i32 0, i32 4
  %36 = load i32, ptr %35, align 4
  %37 = zext i32 %36 to i64
  %38 = load i64, ptr %8, align 8
  %39 = load ptr, ptr %5, align 8
  %40 = getelementptr inbounds nuw %struct.ma_linear_resampler, ptr %39, i32 0, i32 2
  %41 = load i32, ptr %40, align 4
  %42 = zext i32 %41 to i64
  %43 = mul i64 %38, %42
  %44 = add i64 %37, %43
  %45 = load ptr, ptr %5, align 8
  %46 = getelementptr inbounds nuw %struct.ma_linear_resampler, ptr %45, i32 0, i32 0
  %47 = getelementptr inbounds nuw %struct.ma_linear_resampler_config, ptr %46, i32 0, i32 3
  %48 = load i32, ptr %47, align 4
  %49 = zext i32 %48 to i64
  %50 = udiv i64 %44, %49
  store i64 %50, ptr %9, align 8
  %51 = load ptr, ptr %5, align 8
  %52 = getelementptr inbounds nuw %struct.ma_linear_resampler, ptr %51, i32 0, i32 3
  %53 = load i32, ptr %52, align 8
  %54 = zext i32 %53 to i64
  %55 = load i64, ptr %8, align 8
  %56 = load ptr, ptr %5, align 8
  %57 = getelementptr inbounds nuw %struct.ma_linear_resampler, ptr %56, i32 0, i32 1
  %58 = load i32, ptr %57, align 8
  %59 = zext i32 %58 to i64
  %60 = mul i64 %55, %59
  %61 = add i64 %54, %60
  %62 = load i64, ptr %9, align 8
  %63 = add i64 %61, %62
  store i64 %63, ptr %10, align 8
  %64 = load i64, ptr %10, align 8
  %65 = load i64, ptr %6, align 8
  %66 = icmp ule i64 %64, %65
  br i1 %66, label %67, label %70

67:                                               ; preds = %20
  %68 = load i64, ptr %8, align 8
  %69 = add i64 %68, 1
  store i64 %69, ptr %8, align 8
  br label %70

70:                                               ; preds = %67, %20
  %71 = load i64, ptr %8, align 8
  %72 = load ptr, ptr %7, align 8
  store i64 %71, ptr %72, align 8
  store i32 0, ptr %4, align 4
  store i32 1, ptr %11, align 4
  br label %73

73:                                               ; preds = %70, %19, %14
  call void @llvm.lifetime.end.p0(i64 8, ptr %10) #21
  call void @llvm.lifetime.end.p0(i64 8, ptr %9) #21
  call void @llvm.lifetime.end.p0(i64 8, ptr %8) #21
  %74 = load i32, ptr %4, align 4
  ret i32 %74
}