; Function Attrs: mustprogress nofree norecurse nosync nounwind willreturn memory(argmem: readwrite) uwtable
define hidden range(i32 -2, 1) i32 @ma_linear_resampler_get_expected_output_frame_count(ptr noundef readonly captures(address_is_null) %0, i64 noundef %1, ptr noundef writeonly captures(address_is_null) %2) local_unnamed_addr #18 {
  %4 = icmp eq ptr %2, null
  br i1 %4, label %35, label %5

5:                                                ; preds = %3
  store i64 0, ptr %2, align 8
  %6 = icmp eq ptr %0, null
  br i1 %6, label %35, label %7

7:                                                ; preds = %5
  %8 = getelementptr inbounds nuw i8, ptr %0, i64 12
  %9 = load i32, ptr %8, align 4
  %10 = zext i32 %9 to i64
  %11 = mul i64 %1, %10
  %12 = getelementptr inbounds nuw i8, ptr %0, i64 8
  %13 = load i32, ptr %12, align 8
  %14 = zext i32 %13 to i64
  %15 = udiv i64 %11, %14
  %16 = getelementptr inbounds nuw i8, ptr %0, i64 44
  %17 = load i32, ptr %16, align 4
  %18 = zext i32 %17 to i64
  %19 = getelementptr inbounds nuw i8, ptr %0, i64 36
  %20 = load i32, ptr %19, align 4
  %21 = zext i32 %20 to i64
  %22 = mul i64 %15, %21
  %23 = add i64 %22, %18
  %24 = udiv i64 %23, %10
  %25 = getelementptr inbounds nuw i8, ptr %0, i64 40
  %26 = load i32, ptr %25, align 8
  %27 = zext i32 %26 to i64
  %28 = getelementptr inbounds nuw i8, ptr %0, i64 32
  %29 = load i32, ptr %28, align 8
  %30 = zext i32 %29 to i64
  %31 = mul i64 %15, %30
  %32 = add i64 %24, %27
  %33 = add i64 %32, %31
  %.not = icmp ule i64 %33, %1
  %34 = zext i1 %.not to i64
  %spec.select = add i64 %15, %34
  store i64 %spec.select, ptr %2, align 8
  br label %35

35:                                               ; preds = %5, %3, %7
  %.0 = phi i32 [ 0, %7 ], [ -2, %3 ], [ -2, %5 ]
  ret i32 %.0
}